EXPORTS
	_ZN10AuthServer11CPluginDesc4NewLEmRK7TDesC16NS_15TAuthPluginTypeENS_19TAuthTrainingStatusEmmm @ 1 NONAME
	_ZN10AuthServer11CPluginDesc5NewLCER11RReadStream @ 2 NONAME
	_ZN10AuthServer11TSizeStream8DoWriteLEPKvi @ 3 NONAME
	_ZN10AuthServer12CIdAndString10ConstructLEmRK7TDesC16 @ 4 NONAME
	_ZN10AuthServer12CIdAndString5NewLCER11RReadStream @ 5 NONAME
	_ZN10AuthServer12CIdAndString5NewLCEmRK7TDesC16 @ 6 NONAME
	_ZN10AuthServer12CIdAndStringD0Ev @ 7 NONAME
	_ZN10AuthServer12CIdAndStringD1Ev @ 8 NONAME
	_ZN10AuthServer12CIdAndStringD2Ev @ 9 NONAME
	_ZN10AuthServer14CProtectionKey4NewLEP6HBufC8 @ 10 NONAME
	_ZN10AuthServer14CProtectionKey4NewLEi @ 11 NONAME
	_ZN10AuthServer14CProtectionKey5NewLCEP6HBufC8 @ 12 NONAME
	_ZN10AuthServer14CProtectionKey5NewLCEi @ 13 NONAME
	_ZN10AuthServer19CAuthExpressionImpl4NewLER11RReadStream @ 14 NONAME
	_ZN10AuthServer19CAuthExpressionImpl5PanicENS0_6TPanicE @ 15 NONAME
	_ZN10AuthServer6AuthOrEPNS_15CAuthExpressionES1_ @ 16 NONAME
	_ZN10AuthServer7AuthAndEPNS_15CAuthExpressionES1_ @ 17 NONAME
	_ZN10AuthServer8AuthExprENS_15TAuthPluginTypeE @ 18 NONAME
	_ZN10AuthServer8AuthExprEm @ 19 NONAME
	_ZN10AuthServer9CIdentity12InternalizeLER11RReadStream @ 20 NONAME
	_ZN10AuthServer9CIdentity4NewLEmPNS_14CProtectionKeyEP7HBufC16 @ 21 NONAME
	_ZN10AuthServer9CIdentity5NewLCEmPNS_14CProtectionKeyEP7HBufC16 @ 22 NONAME
	_ZNK10AuthServer11CPluginDesc10MinEntropyEv @ 23 NONAME
	_ZNK10AuthServer11CPluginDesc12ExternalizeLER12RWriteStream @ 24 NONAME
	_ZNK10AuthServer11CPluginDesc14TrainingStatusEv @ 25 NONAME
	_ZNK10AuthServer11CPluginDesc17FalseNegativeRateEv @ 26 NONAME
	_ZNK10AuthServer11CPluginDesc17FalsePositiveRateEv @ 27 NONAME
	_ZNK10AuthServer11CPluginDesc2IdEv @ 28 NONAME
	_ZNK10AuthServer11CPluginDesc4NameEv @ 29 NONAME
	_ZNK10AuthServer11CPluginDesc4TypeEv @ 30 NONAME
	_ZNK10AuthServer12CIdAndString12ExternalizeLER12RWriteStream @ 31 NONAME
	_ZNK10AuthServer12CIdAndString2IdEv @ 32 NONAME
	_ZNK10AuthServer12CIdAndString6StringEv @ 33 NONAME
	_ZNK10AuthServer14CProtectionKey10ClientKeyLEi @ 34 NONAME
	_ZNK10AuthServer14CProtectionKey7KeyDataEv @ 35 NONAME
	_ZNK10AuthServer19CAuthExpressionImpl12ExternalizeLER12RWriteStream @ 36 NONAME
	_ZNK10AuthServer19CAuthExpressionImpl9InvariantEv @ 37 NONAME
	_ZNK10AuthServer9CIdentity12ExternalizeLER12RWriteStream @ 38 NONAME
	_ZNK10AuthServer9CIdentity2IdEv @ 39 NONAME
	_ZNK10AuthServer9CIdentity3KeyEv @ 40 NONAME
	_ZNK10AuthServer9CIdentity6StringEv @ 41 NONAME
	_ZTIN10AuthServer11TSizeStreamE @ 42 NONAME ; #<TI>#
	_ZTIN10AuthServer19CAuthExpressionImplE @ 43 NONAME ; #<TI>#
	_ZTIN10AuthServer9CIdentityE @ 44 NONAME ; #<TI>#
	_ZTVN10AuthServer11TSizeStreamE @ 45 NONAME ; #<VT>#
	_ZTVN10AuthServer19CAuthExpressionImplE @ 46 NONAME ; #<VT>#
	_ZTVN10AuthServer9CIdentityE @ 47 NONAME ; #<VT>#
	KEnablePostMarketAuthenticationPlugins @ 48 NONAME DATA 1
	_ZN10AuthServer19CAuthExpressionImpl21CreateAuthExprObjectLERK7TDesC16 @ 49 NONAME
	_ZN10AuthServer19CAuthExpressionImpl28InsertSpaceBetweenOperatorsLERK7TDesC16R6RBuf16 @ 50 NONAME
	_ZN10AuthServer11CAuthParams12InternalizeLER11RReadStream @ 51 NONAME
	_ZN10AuthServer11CAuthParams4NewLE20TTimeIntervalSecondsi4TUidiRK7TDesC16 @ 52 NONAME
	_ZN10AuthServer8AuthExprEv @ 53 NONAME
	_ZNK10AuthServer11CAuthParams12ExternalizeLER12RWriteStream @ 54 NONAME
	_ZTIN10AuthServer11CAuthParamsE @ 55 NONAME
	_ZTVN10AuthServer11CAuthParamsE @ 56 NONAME

