EXPORTS
	??0RAuthClient@AuthServer@@QAE@XZ @ 1 NONAME ; AuthServer::RAuthClient::RAuthClient(void)
	?ActivePluginsL@RAuthClient@AuthServer@@QAEXAAV?$RCPointerArray@$$CBVCPluginDesc@AuthServer@@@@@Z @ 2 NONAME ; void AuthServer::RAuthClient::ActivePluginsL(class RCPointerArray<class AuthServer::CPluginDesc const > &)
	?AuthenticateL@RAuthClient@AuthServer@@QAEPAVCIdentity@2@ABVCAuthExpression@2@VTTimeIntervalSeconds@@HH@Z @ 3 NONAME ; class AuthServer::CIdentity * AuthServer::RAuthClient::AuthenticateL(class AuthServer::CAuthExpression const &, class TTimeIntervalSeconds, int, int)
	?AuthenticateL@RAuthClient@AuthServer@@QAEXABVCAuthExpression@2@VTTimeIntervalSeconds@@HHAAPAVCIdentity@2@AAVTRequestStatus@@@Z @ 4 NONAME ; void AuthServer::RAuthClient::AuthenticateL(class AuthServer::CAuthExpression const &, class TTimeIntervalSeconds, int, int, class AuthServer::CIdentity * &, class TRequestStatus &)
	?Cancel@RAuthClient@AuthServer@@QAEIXZ @ 5 NONAME ; unsigned int AuthServer::RAuthClient::Cancel(void)
	?Close@RAuthClient@AuthServer@@QAEXXZ @ 6 NONAME ; void AuthServer::RAuthClient::Close(void)
	?Connect@RAuthClient@AuthServer@@QAEHXZ @ 7 NONAME ; int AuthServer::RAuthClient::Connect(void)
	?DeauthenticateL@RAuthClient@AuthServer@@QAEXXZ @ 8 NONAME ; void AuthServer::RAuthClient::DeauthenticateL(void)
	?ForgetPluginL@RAuthMgrClient@AuthServer@@QAEXKK@Z @ 9 NONAME ; void AuthServer::RAuthMgrClient::ForgetPluginL(unsigned long, unsigned long)
	?IdentitiesL@RAuthClient@AuthServer@@QAEXAAV?$RArray@K@@@Z @ 10 NONAME ; void AuthServer::RAuthClient::IdentitiesL(class RArray<unsigned long> &)
	?IdentitiesWithStringL@RAuthClient@AuthServer@@QAEXAAV?$RCPointerArray@VCIdAndString@AuthServer@@@@@Z @ 11 NONAME ; void AuthServer::RAuthClient::IdentitiesWithStringL(class RCPointerArray<class AuthServer::CIdAndString> &)
	?IdentityStringL@RAuthClient@AuthServer@@QAEPAVHBufC16@@K@Z @ 12 NONAME ; class HBufC16 * AuthServer::RAuthClient::IdentityStringL(unsigned long)
	?PluginsL@RAuthClient@AuthServer@@QAEXAAV?$RCPointerArray@$$CBVCPluginDesc@AuthServer@@@@@Z @ 13 NONAME ; void AuthServer::RAuthClient::PluginsL(class RCPointerArray<class AuthServer::CPluginDesc const > &)
	?PluginsOfTypeL@RAuthClient@AuthServer@@QAEXW4TAuthPluginType@2@AAV?$RCPointerArray@$$CBVCPluginDesc@AuthServer@@@@@Z @ 14 NONAME ; void AuthServer::RAuthClient::PluginsOfTypeL(enum AuthServer::TAuthPluginType, class RCPointerArray<class AuthServer::CPluginDesc const > &)
	?PluginsWithTrainingStatusL@RAuthClient@AuthServer@@QAEXW4TAuthTrainingStatus@2@AAV?$RCPointerArray@$$CBVCPluginDesc@AuthServer@@@@@Z @ 15 NONAME ; void AuthServer::RAuthClient::PluginsWithTrainingStatusL(enum AuthServer::TAuthTrainingStatus, class RCPointerArray<class AuthServer::CPluginDesc const > &)
	?PreferredTypePluginL@RAuthClient@AuthServer@@QAEKW4TAuthPluginType@2@@Z @ 16 NONAME ; unsigned long AuthServer::RAuthClient::PreferredTypePluginL(enum AuthServer::TAuthPluginType)
	?RegisterIdentityL@RAuthMgrClient@AuthServer@@QAEXAAPAVCIdentity@2@ABVTDesC16@@AAVTRequestStatus@@@Z @ 17 NONAME ; void AuthServer::RAuthMgrClient::RegisterIdentityL(class AuthServer::CIdentity * &, class TDesC16 const &, class TRequestStatus &)
	?RemoveIdentityL@RAuthMgrClient@AuthServer@@QAEXK@Z @ 18 NONAME ; void AuthServer::RAuthMgrClient::RemoveIdentityL(unsigned long)
	?SetIdentityStringL@RAuthClient@AuthServer@@QAEXKABVTDesC16@@@Z @ 19 NONAME ; void AuthServer::RAuthClient::SetIdentityStringL(unsigned long, class TDesC16 const &)
	?SetPreferredTypePluginL@RAuthMgrClient@AuthServer@@QAEXW4TAuthPluginType@2@K@Z @ 20 NONAME ; void AuthServer::RAuthMgrClient::SetPreferredTypePluginL(enum AuthServer::TAuthPluginType, unsigned long)
	?TrainPlugin@RAuthMgrClient@AuthServer@@QAEXKKAAVTRequestStatus@@@Z @ 21 NONAME ; void AuthServer::RAuthMgrClient::TrainPlugin(unsigned long, unsigned long, class TRequestStatus &)
	?AuthenticateL@RAuthClient@AuthServer@@QAEPAVCIdentity@2@ABVCAuthExpression@2@VTTimeIntervalSeconds@@HVTUid@@HABVTDesC16@@@Z @ 22 NONAME ; class AuthServer::CIdentity * AuthServer::RAuthClient::AuthenticateL(class AuthServer::CAuthExpression const &, class TTimeIntervalSeconds, int, class TUid, int, class TDesC16 const &)
	?AuthenticateL@RAuthClient@AuthServer@@QAEXABVCAuthExpression@2@VTTimeIntervalSeconds@@HVTUid@@HABVTDesC16@@AAPAVCIdentity@2@AAVTRequestStatus@@@Z @ 23 NONAME ; void AuthServer::RAuthClient::AuthenticateL(class AuthServer::CAuthExpression const &, class TTimeIntervalSeconds, int, class TUid, int, class TDesC16 const &, class AuthServer::CIdentity * &, class TRequestStatus &)
	?CreateAuthExpressionL@RAuthClient@AuthServer@@QBEPAVCAuthExpression@2@ABVTDesC16@@@Z @ 24 NONAME ; class AuthServer::CAuthExpression * AuthServer::RAuthClient::CreateAuthExpressionL(class TDesC16 const &) const
	?ListAuthAliasesL@RAuthClient@AuthServer@@QAEXAAV?$RPointerArray@VHBufC16@@@@@Z @ 25 NONAME ; void AuthServer::RAuthClient::ListAuthAliasesL(class RPointerArray<class HBufC16> &)
	?ResetIdentityL@RAuthMgrClient@AuthServer@@QAEXKAAV?$RArray@K@@AAV?$RPointerArray@$$CBVHBufC16@@@@@Z @ 26 NONAME ; void AuthServer::RAuthMgrClient::ResetIdentityL(unsigned long, class RArray<unsigned long> &, class RPointerArray<class HBufC16 const > &)
	?ResetIdentityL@RAuthMgrClient@AuthServer@@QAEXKABVTDesC16@@@Z @ 27 NONAME ; void AuthServer::RAuthMgrClient::ResetIdentityL(unsigned long, class TDesC16 const &)
	?ResetIdentityL@RAuthMgrClient@AuthServer@@QAEXKW4TAuthPluginType@2@ABVTDesC16@@@Z @ 28 NONAME ; void AuthServer::RAuthMgrClient::ResetIdentityL(unsigned long, enum AuthServer::TAuthPluginType, class TDesC16 const &)

