EXPORTS
	??1CIdAndString@AuthServer@@UAE@XZ @ 1 NONAME ; AuthServer::CIdAndString::~CIdAndString(void)
	?AuthAnd@AuthServer@@YA?AVTAuthExpressionWrapper@1@PAVCAuthExpression@1@0@Z @ 2 NONAME ; class AuthServer::TAuthExpressionWrapper AuthServer::AuthAnd(class AuthServer::CAuthExpression *, class AuthServer::CAuthExpression *)
	?AuthExpr@AuthServer@@YA?AVTAuthExpressionWrapper@1@K@Z @ 3 NONAME ; class AuthServer::TAuthExpressionWrapper AuthServer::AuthExpr(unsigned long)
	?AuthExpr@AuthServer@@YA?AVTAuthExpressionWrapper@1@W4TAuthPluginType@1@@Z @ 4 NONAME ; class AuthServer::TAuthExpressionWrapper AuthServer::AuthExpr(enum AuthServer::TAuthPluginType)
	?AuthOr@AuthServer@@YA?AVTAuthExpressionWrapper@1@PAVCAuthExpression@1@0@Z @ 5 NONAME ; class AuthServer::TAuthExpressionWrapper AuthServer::AuthOr(class AuthServer::CAuthExpression *, class AuthServer::CAuthExpression *)
	?ClientKeyL@CProtectionKey@AuthServer@@QBEPAV12@H@Z @ 6 NONAME ; class AuthServer::CProtectionKey * AuthServer::CProtectionKey::ClientKeyL(int) const
	?ConstructL@CIdAndString@AuthServer@@QAEXKABVTDesC16@@@Z @ 7 NONAME ; void AuthServer::CIdAndString::ConstructL(unsigned long, class TDesC16 const &)
	?DoWriteL@TSizeStream@AuthServer@@UAEXPBXH@Z @ 8 NONAME ; void AuthServer::TSizeStream::DoWriteL(void const *, int)
	?ExternalizeL@CAuthExpressionImpl@AuthServer@@UBEXAAVRWriteStream@@@Z @ 9 NONAME ; void AuthServer::CAuthExpressionImpl::ExternalizeL(class RWriteStream &) const
	?ExternalizeL@CIdAndString@AuthServer@@QBEXAAVRWriteStream@@@Z @ 10 NONAME ; void AuthServer::CIdAndString::ExternalizeL(class RWriteStream &) const
	?ExternalizeL@CIdentity@AuthServer@@QBEXAAVRWriteStream@@@Z @ 11 NONAME ; void AuthServer::CIdentity::ExternalizeL(class RWriteStream &) const
	?ExternalizeL@CPluginDesc@AuthServer@@QBEXAAVRWriteStream@@@Z @ 12 NONAME ; void AuthServer::CPluginDesc::ExternalizeL(class RWriteStream &) const
	?FalseNegativeRate@CPluginDesc@AuthServer@@QBEKXZ @ 13 NONAME ; unsigned long AuthServer::CPluginDesc::FalseNegativeRate(void) const
	?FalsePositiveRate@CPluginDesc@AuthServer@@QBEKXZ @ 14 NONAME ; unsigned long AuthServer::CPluginDesc::FalsePositiveRate(void) const
	?Id@CIdAndString@AuthServer@@QBEKXZ @ 15 NONAME ; unsigned long AuthServer::CIdAndString::Id(void) const
	?Id@CIdentity@AuthServer@@QBEKXZ @ 16 NONAME ; unsigned long AuthServer::CIdentity::Id(void) const
	?Id@CPluginDesc@AuthServer@@QBEKXZ @ 17 NONAME ; unsigned long AuthServer::CPluginDesc::Id(void) const
	?InternalizeL@CIdAndString@AuthServer@@QAEXAAVRReadStream@@@Z @ 18 NONAME ABSENT ; void AuthServer::CIdAndString::InternalizeL(class RReadStream &)
	?InternalizeL@CIdentity@AuthServer@@SAPAV12@AAVRReadStream@@@Z @ 19 NONAME ; class AuthServer::CIdentity * AuthServer::CIdentity::InternalizeL(class RReadStream &)
	?Invariant@CAuthExpressionImpl@AuthServer@@ABEHXZ @ 20 NONAME ; int AuthServer::CAuthExpressionImpl::Invariant(void) const
	?Key@CIdentity@AuthServer@@QBEABVCProtectionKey@2@XZ @ 21 NONAME ; class AuthServer::CProtectionKey const & AuthServer::CIdentity::Key(void) const
	?KeyData@CProtectionKey@AuthServer@@QBE?AVTPtrC8@@XZ @ 22 NONAME ; class TPtrC8 AuthServer::CProtectionKey::KeyData(void) const
	?MinEntropy@CPluginDesc@AuthServer@@QBEKXZ @ 23 NONAME ; unsigned long AuthServer::CPluginDesc::MinEntropy(void) const
	?Name@CPluginDesc@AuthServer@@QBEPBVTDesC16@@XZ @ 24 NONAME ; class TDesC16 const * AuthServer::CPluginDesc::Name(void) const
	?NewL@CAuthExpressionImpl@AuthServer@@SAPAV12@AAVRReadStream@@@Z @ 25 NONAME ; class AuthServer::CAuthExpressionImpl * AuthServer::CAuthExpressionImpl::NewL(class RReadStream &)
	?NewL@CIdentity@AuthServer@@SAPAV12@KPAVCProtectionKey@2@PAVHBufC16@@@Z @ 26 NONAME ; class AuthServer::CIdentity * AuthServer::CIdentity::NewL(unsigned long, class AuthServer::CProtectionKey *, class HBufC16 *)
	?NewL@CPluginDesc@AuthServer@@SAPAV12@KABVTDesC16@@W4TAuthPluginType@2@W4TAuthTrainingStatus@2@KKK@Z @ 27 NONAME ; class AuthServer::CPluginDesc * AuthServer::CPluginDesc::NewL(unsigned long, class TDesC16 const &, enum AuthServer::TAuthPluginType, enum AuthServer::TAuthTrainingStatus, unsigned long, unsigned long, unsigned long)
	?NewL@CProtectionKey@AuthServer@@SAPAV12@H@Z @ 28 NONAME ; class AuthServer::CProtectionKey * AuthServer::CProtectionKey::NewL(int)
	?NewL@CProtectionKey@AuthServer@@SAPAV12@PAVHBufC8@@@Z @ 29 NONAME ; class AuthServer::CProtectionKey * AuthServer::CProtectionKey::NewL(class HBufC8 *)
	?NewLC@CIdAndString@AuthServer@@SAPAV12@AAVRReadStream@@@Z @ 30 NONAME ; class AuthServer::CIdAndString * AuthServer::CIdAndString::NewLC(class RReadStream &)
	?NewLC@CIdAndString@AuthServer@@SAPAV12@KABVTDesC16@@@Z @ 31 NONAME ; class AuthServer::CIdAndString * AuthServer::CIdAndString::NewLC(unsigned long, class TDesC16 const &)
	?NewLC@CIdentity@AuthServer@@SAPAV12@KPAVCProtectionKey@2@PAVHBufC16@@@Z @ 32 NONAME ; class AuthServer::CIdentity * AuthServer::CIdentity::NewLC(unsigned long, class AuthServer::CProtectionKey *, class HBufC16 *)
	?NewLC@CPluginDesc@AuthServer@@SAPAV12@AAVRReadStream@@@Z @ 33 NONAME ; class AuthServer::CPluginDesc * AuthServer::CPluginDesc::NewLC(class RReadStream &)
	?NewLC@CProtectionKey@AuthServer@@SAPAV12@H@Z @ 34 NONAME ; class AuthServer::CProtectionKey * AuthServer::CProtectionKey::NewLC(int)
	?NewLC@CProtectionKey@AuthServer@@SAPAV12@PAVHBufC8@@@Z @ 35 NONAME ; class AuthServer::CProtectionKey * AuthServer::CProtectionKey::NewLC(class HBufC8 *)
	?Panic@CAuthExpressionImpl@AuthServer@@CAXW4TPanic@12@@Z @ 36 NONAME ; void AuthServer::CAuthExpressionImpl::Panic(enum AuthServer::CAuthExpressionImpl::TPanic)
	?String@CIdAndString@AuthServer@@QBEPAVHBufC16@@XZ @ 37 NONAME ; class HBufC16 * AuthServer::CIdAndString::String(void) const
	?String@CIdentity@AuthServer@@QBEAAVTDesC16@@XZ @ 38 NONAME ; class TDesC16 & AuthServer::CIdentity::String(void) const
	?TrainingStatus@CPluginDesc@AuthServer@@QBE?AW4TAuthTrainingStatus@2@XZ @ 39 NONAME ; enum AuthServer::TAuthTrainingStatus AuthServer::CPluginDesc::TrainingStatus(void) const
	?Type@CPluginDesc@AuthServer@@QBE?AW4TAuthPluginType@2@XZ @ 40 NONAME ; enum AuthServer::TAuthPluginType AuthServer::CPluginDesc::Type(void) const
	?InsertSpaceBetweenOperatorsL@CAuthExpressionImpl@AuthServer@@SAXABVTDesC16@@AAVRBuf16@@@Z @ 41 NONAME ; void AuthServer::CAuthExpressionImpl::InsertSpaceBetweenOperatorsL(class TDesC16 const &, class RBuf16 &)
	?KEnablePostMarketAuthenticationPlugins@@3EB @ 42 NONAME ; unsigned char const KEnablePostMarketAuthenticationPlugins
	?CreateAuthExprObjectL@CAuthExpressionImpl@AuthServer@@SAPAVCAuthExpression@2@ABVTDesC16@@@Z @ 43 NONAME ; class AuthServer::CAuthExpression * AuthServer::CAuthExpressionImpl::CreateAuthExprObjectL(class TDesC16 const &)
	?AuthExpr@AuthServer@@YA?AVTAuthExpressionWrapper@1@XZ @ 44 NONAME ; class AuthServer::TAuthExpressionWrapper AuthServer::AuthExpr(void)
	?InternalizeL@CAuthParams@AuthServer@@QAEXAAVRReadStream@@@Z @ 45 NONAME ; void AuthServer::CAuthParams::InternalizeL(class RReadStream &)
	?ExternalizeL@CAuthParams@AuthServer@@QBEXAAVRWriteStream@@@Z @ 46 NONAME ; void AuthServer::CAuthParams::ExternalizeL(class RWriteStream &) const
	?NewL@CAuthParams@AuthServer@@SAPAV12@VTTimeIntervalSeconds@@HVTUid@@HABVTDesC16@@@Z @ 47 NONAME ; class AuthServer::CAuthParams * AuthServer::CAuthParams::NewL(class TTimeIntervalSeconds, int, class TUid, int, class TDesC16 const &)
	
